; Function Attrs: mustprogress nounwind uwtable
define hidden void @_ZN16ZGenerationYoung25in_place_relocate_promoteEP5ZPageS1_(ptr nocapture noundef nonnull readonly align 64 dereferenceable(6720) %0, ptr noundef %1, ptr noundef %2) local_unnamed_addr #0 align 2 {
  %4 = getelementptr inbounds i8, ptr %0, i64 24
  %5 = load ptr, ptr %4, align 8
  tail call void @_ZN10ZPageTable7replaceEP5ZPageS1_(ptr noundef nonnull align 8 dereferenceable(16) %5, ptr noundef %1, ptr noundef %2) #18
  %6 = getelementptr inbounds i8, ptr %0, i64 16
  %7 = load ptr, ptr %6, align 16
  %8 = getelementptr inbounds i8, ptr %1, i64 16
  %9 = getelementptr inbounds i8, ptr %1, i64 24
  %10 = load i64, ptr %9, align 8
  %11 = load i64, ptr %8, align 8
  %12 = sub i64 %10, %11
  tail call void @_ZN14ZPageAllocator12promote_usedEm(ptr noundef nonnull align 8 dereferenceable(609) %7, i64 noundef %12) #18
  ret void
}